; Function Attrs: nounwind uwtable
define dso_local range(i64 0, 2) i64 @multirange_adjacent_range(ptr noundef readonly captures(none) %0) local_unnamed_addr #0 {
  %2 = getelementptr inbounds nuw i8, ptr %0, i64 32
  %3 = load i64, ptr %2, align 8
  %4 = inttoptr i64 %3 to ptr
  %5 = tail call ptr @pg_detoast_datum(ptr noundef %4) #11
  %6 = getelementptr inbounds nuw i8, ptr %0, i64 48
  %7 = load i64, ptr %6, align 8
  %8 = inttoptr i64 %7 to ptr
  %9 = tail call ptr @pg_detoast_datum(ptr noundef %8) #11
  %10 = tail call signext i8 @range_get_flags(ptr noundef %9) #11
  %11 = and i8 %10, 1
  %.not = icmp eq i8 %11, 0
  br i1 %.not, label %12, label %40

12:                                               ; preds = %1
  %13 = getelementptr inbounds nuw i8, ptr %5, i64 8
  %14 = load i32, ptr %13, align 4
  %15 = icmp eq i32 %14, 0
  br i1 %15, label %40, label %16

16:                                               ; preds = %12
  %17 = getelementptr inbounds nuw i8, ptr %5, i64 4
  %18 = load i32, ptr %17, align 4
  %19 = load ptr, ptr %0, align 8
  %20 = getelementptr inbounds nuw i8, ptr %19, i64 24
  %21 = load ptr, ptr %20, align 8
  %22 = icmp eq ptr %21, null
  br i1 %22, label %25, label %23

23:                                               ; preds = %16
  %24 = load i32, ptr %21, align 8
  %.not.i = icmp eq i32 %24, %18
  br i1 %.not.i, label %multirange_get_typcache.exit, label %25

25:                                               ; preds = %23, %16
  %26 = tail call ptr @lookup_type_cache(i32 noundef %18, i32 noundef 65536) #11
  %27 = getelementptr inbounds nuw i8, ptr %26, i64 440
  %28 = load ptr, ptr %27, align 8
  %29 = icmp eq ptr %28, null
  br i1 %29, label %30, label %33

30:                                               ; preds = %25
  %31 = tail call zeroext i1 @errstart_cold(i32 noundef 21, ptr noundef null) #13
  tail call void @llvm.assume(i1 %31)
  %32 = tail call i32 (ptr, ...) @errmsg_internal(ptr noundef nonnull @.str.9, i32 noundef %18) #11
  tail call void @errfinish(ptr noundef nonnull @.str.2, i32 noundef 557, ptr noundef nonnull @__func__.multirange_get_typcache) #11
  unreachable

33:                                               ; preds = %25
  %34 = load ptr, ptr %0, align 8
  %35 = getelementptr inbounds nuw i8, ptr %34, i64 24
  store ptr %26, ptr %35, align 8
  br label %multirange_get_typcache.exit

multirange_get_typcache.exit:                     ; preds = %23, %33
  %.0.i = phi ptr [ %26, %33 ], [ %21, %23 ]
  %36 = getelementptr inbounds nuw i8, ptr %.0.i, i64 440
  %37 = load ptr, ptr %36, align 8
  %38 = tail call zeroext i1 @range_adjacent_multirange_internal(ptr noundef %37, ptr noundef %9, ptr noundef nonnull %5)
  %39 = zext i1 %38 to i64
  br label %40

40:                                               ; preds = %1, %12, %multirange_get_typcache.exit
  %.0 = phi i64 [ %39, %multirange_get_typcache.exit ], [ 0, %12 ], [ 0, %1 ]
  ret i64 %.0
}